; Function Attrs: nounwind sspstrong uwtable
define internal noundef i32 @pty_chr_timer(ptr noundef %opaque) #0 {
entry:
  %call.i = tail call ptr @object_dynamic_cast_assert(ptr noundef %opaque, ptr noundef nonnull @.str.1, ptr noundef nonnull @.str.2, i32 noundef 231, ptr noundef nonnull @__func__.CHARDEV) #9
  %call.i4 = tail call ptr @object_dynamic_cast_assert(ptr noundef %opaque, ptr noundef nonnull @.str, ptr noundef nonnull @.str.3, i32 noundef 48, ptr noundef nonnull @__func__.PTY_CHARDEV) #9
  %timer_src.i = getelementptr inbounds nuw i8, ptr %call.i4, i64 168
  %0 = load ptr, ptr %timer_src.i, align 8
  %tobool.not.i = icmp eq ptr %0, null
  br i1 %tobool.not.i, label %pty_chr_timer_cancel.exit, label %if.then.i

if.then.i:                                        ; preds = %entry
  tail call void @g_source_destroy(ptr noundef nonnull %0) #9
  %1 = load ptr, ptr %timer_src.i, align 8
  tail call void @g_source_unref(ptr noundef %1) #9
  store ptr null, ptr %timer_src.i, align 8
  br label %pty_chr_timer_cancel.exit

pty_chr_timer_cancel.exit:                        ; preds = %entry, %if.then.i
  %connected = getelementptr inbounds nuw i8, ptr %call.i4, i64 164
  %2 = load i32, ptr %connected, align 4
  %tobool.not = icmp eq i32 %2, 0
  br i1 %tobool.not, label %if.then, label %if.end

if.then:                                          ; preds = %pty_chr_timer_cancel.exit
  %gcontext = getelementptr inbounds nuw i8, ptr %call.i, i64 136
  %3 = load ptr, ptr %gcontext, align 8
  tail call void @qemu_chr_be_update_read_handlers(ptr noundef %call.i, ptr noundef %3) #9
  br label %if.end

if.end:                                           ; preds = %if.then, %pty_chr_timer_cancel.exit
  ret i32 0
}